target datalayout = "e-m:e-p270:32:32-p271:32:32-p272:64:64-i64:64-i128:128-f80:128-n8:16:32:64-S128"
target triple = "x86_64-pc-linux-gnu"

%"class.Ipopt::TaggedObject" = type { %"class.Ipopt::ReferencedObject.base", %"class.Ipopt::Subject", i32, i32 }
%"class.Ipopt::ReferencedObject.base" = type <{ ptr, i32 }>
%"class.Ipopt::Subject" = type { ptr, %"class.std::vector" }
%"class.std::vector" = type { %"struct.std::_Vector_base" }
%"struct.std::_Vector_base" = type { %"struct.std::_Vector_base<Ipopt::Observer *, std::allocator<Ipopt::Observer *>>::_Vector_impl" }
%"struct.std::_Vector_base<Ipopt::Observer *, std::allocator<Ipopt::Observer *>>::_Vector_impl" = type { %"struct.std::_Vector_base<Ipopt::Observer *, std::allocator<Ipopt::Observer *>>::_Vector_impl_data" }
%"struct.std::_Vector_base<Ipopt::Observer *, std::allocator<Ipopt::Observer *>>::_Vector_impl_data" = type { ptr, ptr, ptr }
%"class.Ipopt::SmartPtr" = type { ptr }
%"class.Ipopt::SmartPtr.10" = type { ptr }
%"class.Ipopt::OrigIpoptNLP" = type { %"class.Ipopt::IpoptNLP", %"class.Ipopt::SmartPtr.11", %"class.Ipopt::SmartPtr.12", %"class.Ipopt::SmartPtr.13", %"class.Ipopt::SmartPtr.13", %"class.Ipopt::SmartPtr.13", %"class.Ipopt::SmartPtr.13", %"class.Ipopt::SmartPtr", %"class.Ipopt::SmartPtr.13", %"class.Ipopt::SmartPtr", %"class.Ipopt::SmartPtr.13", %"class.Ipopt::SmartPtr", %"class.Ipopt::SmartPtr.13", %"class.Ipopt::SmartPtr", %"class.Ipopt::SmartPtr", %"class.Ipopt::SmartPtr", %"class.Ipopt::SmartPtr.14", %"class.Ipopt::SmartPtr", %"class.Ipopt::SmartPtr", %"class.Ipopt::SmartPtr.14", %"class.Ipopt::CachedResults", %"class.Ipopt::CachedResults.15", %"class.Ipopt::CachedResults.15", %"class.Ipopt::CachedResults.16", %"class.Ipopt::CachedResults.15", %"class.Ipopt::CachedResults.16", %"class.Ipopt::CachedResults.17", %"class.Ipopt::CachedResults.15", %"class.Ipopt::SmartPtr.18", %"class.Ipopt::SmartPtr.19", %"class.Ipopt::SmartPtr.18", %"class.Ipopt::SmartPtr.19", %"class.Ipopt::SmartPtr.18", %"class.Ipopt::SmartPtr.19", %"class.Ipopt::SmartPtr.18", %"class.Ipopt::SmartPtr.19", %"class.Ipopt::SmartPtr.18", %"class.Ipopt::SmartPtr.18", %"class.Ipopt::SmartPtr.18", %"class.Ipopt::SmartPtr.18", double, double, i8, i8, i32, i32, i8, i8, i8, i8, i8, i32, i32, i32, i32, i32, i32, i32, i8, ptr }
%"class.Ipopt::IpoptNLP" = type { %"class.Ipopt::ReferencedObject.base", %"class.Ipopt::SmartPtr.10" }
%"class.Ipopt::SmartPtr.11" = type { ptr }
%"class.Ipopt::SmartPtr.12" = type { ptr }
%"class.Ipopt::SmartPtr.13" = type { ptr }
%"class.Ipopt::SmartPtr.14" = type { ptr }
%"class.Ipopt::CachedResults" = type { ptr, i32, ptr }
%"class.Ipopt::CachedResults.16" = type { ptr, i32, ptr }
%"class.Ipopt::CachedResults.17" = type { ptr, i32, ptr }
%"class.Ipopt::CachedResults.15" = type { ptr, i32, ptr }
%"class.Ipopt::SmartPtr.19" = type { ptr }
%"class.Ipopt::SmartPtr.18" = type { ptr }
%"class.Ipopt::Vector" = type <{ %"class.Ipopt::TaggedObject", %"class.Ipopt::SmartPtr.13", %"class.Ipopt::CachedResults", i32, [4 x i8], double, i32, [4 x i8], double, i32, [4 x i8], double, i32, [4 x i8], double, i32, [4 x i8], double, i32, [4 x i8], double, i32, [4 x i8], double, i32, i8, [3 x i8] }>
%"class.Ipopt::ReferencedObject" = type <{ ptr, i32, [4 x i8] }>

; Function Attrs: mustprogress nounwind uwtable
define linkonce_odr noundef i32 @_ZNK5Ipopt16ReferencedObject14ReferenceCountEv(ptr noundef nonnull align 8 dereferenceable(12) %0) #4 comdat align 2 {
  %2 = alloca ptr, align 8
  store ptr %0, ptr %2, align 8
  %3 = load ptr, ptr %2, align 8
  %4 = getelementptr inbounds %"class.Ipopt::ReferencedObject", ptr %3, i32 0, i32 1
  %5 = load i32, ptr %4, align 8
  ret i32 %5
}

; Function Attrs: mustprogress nounwind uwtable
define linkonce_odr void @_ZNK5Ipopt16ReferencedObject10ReleaseRefEPKNS_10ReferencerE(ptr noundef nonnull align 8 dereferenceable(12) %0, ptr noundef %1) #4 comdat align 2 {
  %3 = alloca ptr, align 8
  %4 = alloca ptr, align 8
  store ptr %0, ptr %3, align 8
  store ptr %1, ptr %4, align 8
  %5 = load ptr, ptr %3, align 8
  %6 = getelementptr inbounds %"class.Ipopt::ReferencedObject", ptr %5, i32 0, i32 1
  %7 = load i32, ptr %6, align 8
  %8 = add nsw i32 %7, -1
  store i32 %8, ptr %6, align 8
  ret void
}

; Function Attrs: mustprogress nounwind uwtable
define linkonce_odr void @_ZN5Ipopt8SmartPtrIKNS_6VectorEE15ReleasePointer_Ev(ptr noundef nonnull align 8 dereferenceable(8) %0) #4 comdat align 2 {
  %2 = alloca ptr, align 8
  store ptr %0, ptr %2, align 8
  %3 = load ptr, ptr %2, align 8
  %4 = getelementptr inbounds %"class.Ipopt::SmartPtr.18", ptr %3, i32 0, i32 0
  %5 = load ptr, ptr %4, align 8
  %6 = icmp ne ptr %5, null
  br i1 %6, label %7, label %24

7:                                                ; preds = %1
  %8 = getelementptr inbounds %"class.Ipopt::SmartPtr.18", ptr %3, i32 0, i32 0
  %9 = load ptr, ptr %8, align 8
  call void @_ZNK5Ipopt16ReferencedObject10ReleaseRefEPKNS_10ReferencerE(ptr noundef nonnull align 8 dereferenceable(12) %9, ptr noundef %3)
  %10 = getelementptr inbounds %"class.Ipopt::SmartPtr.18", ptr %3, i32 0, i32 0
  %11 = load ptr, ptr %10, align 8
  %12 = call noundef i32 @_ZNK5Ipopt16ReferencedObject14ReferenceCountEv(ptr noundef nonnull align 8 dereferenceable(12) %11)
  %13 = icmp eq i32 %12, 0
  br i1 %13, label %14, label %23

14:                                               ; preds = %7
  %15 = getelementptr inbounds %"class.Ipopt::SmartPtr.18", ptr %3, i32 0, i32 0
  %16 = load ptr, ptr %15, align 8
  %17 = icmp eq ptr %16, null
  br i1 %17, label %22, label %18

18:                                               ; preds = %14
  %19 = load ptr, ptr %16, align 8
  %20 = getelementptr inbounds ptr, ptr %19, i64 1
  %21 = load ptr, ptr %20, align 8
  call void %21(ptr noundef nonnull align 8 dereferenceable(205) %16) #3
  br label %22

22:                                               ; preds = %18, %14
  br label %23

23:                                               ; preds = %22, %7
  br label %24

24:                                               ; preds = %23, %1
  ret void
}

; Function Attrs: mustprogress nounwind uwtable
define linkonce_odr void @_ZNK5Ipopt16ReferencedObject6AddRefEPKNS_10ReferencerE(ptr noundef nonnull align 8 dereferenceable(12) %0, ptr noundef %1) #4 comdat align 2 {
  %3 = alloca ptr, align 8
  %4 = alloca ptr, align 8
  store ptr %0, ptr %3, align 8
  store ptr %1, ptr %4, align 8
  %5 = load ptr, ptr %3, align 8
  %6 = getelementptr inbounds %"class.Ipopt::ReferencedObject", ptr %5, i32 0, i32 1
  %7 = load i32, ptr %6, align 8
  %8 = add nsw i32 %7, 1
  store i32 %8, ptr %6, align 8
  ret void
}

; Function Attrs: mustprogress nounwind uwtable
define linkonce_odr noundef ptr @_ZNK5Ipopt8SmartPtrIKNS_11VectorSpaceEEptEv(ptr noundef nonnull align 8 dereferenceable(8) %0) #4 comdat align 2 {
  %2 = alloca ptr, align 8
  store ptr %0, ptr %2, align 8
  %3 = load ptr, ptr %2, align 8
  %4 = getelementptr inbounds %"class.Ipopt::SmartPtr.13", ptr %3, i32 0, i32 0
  %5 = load ptr, ptr %4, align 8
  ret ptr %5
}

; Function Attrs: mustprogress uwtable
define linkonce_odr noundef nonnull align 8 dereferenceable(8) ptr @_ZN5Ipopt8SmartPtrIKNS_6VectorEE14SetFromRawPtr_EPS2_(ptr noundef nonnull align 8 dereferenceable(8) %0, ptr noundef %1) #7 comdat align 2 {
  %3 = alloca ptr, align 8
  %4 = alloca ptr, align 8
  store ptr %0, ptr %3, align 8
  store ptr %1, ptr %4, align 8
  %5 = load ptr, ptr %3, align 8
  %6 = load ptr, ptr %4, align 8
  %7 = icmp ne ptr %6, null
  br i1 %7, label %8, label %10

8:                                                ; preds = %2
  %9 = load ptr, ptr %4, align 8
  call void @_ZNK5Ipopt16ReferencedObject6AddRefEPKNS_10ReferencerE(ptr noundef nonnull align 8 dereferenceable(12) %9, ptr noundef %5)
  br label %10

10:                                               ; preds = %8, %2
  call void @_ZN5Ipopt8SmartPtrIKNS_6VectorEE15ReleasePointer_Ev(ptr noundef nonnull align 8 dereferenceable(8) %5)
  %11 = load ptr, ptr %4, align 8
  %12 = getelementptr inbounds %"class.Ipopt::SmartPtr.18", ptr %5, i32 0, i32 0
  store ptr %11, ptr %12, align 8
  ret ptr %5
}

; Function Attrs: mustprogress uwtable
define linkonce_odr noundef ptr @_ZNK5Ipopt6Vector7MakeNewEv(ptr noundef nonnull align 8 dereferenceable(205) %0) #7 comdat align 2 {
  %2 = alloca ptr, align 8
  store ptr %0, ptr %2, align 8
  %3 = load ptr, ptr %2, align 8
  %4 = getelementptr inbounds %"class.Ipopt::Vector", ptr %3, i32 0, i32 1
  %5 = call noundef ptr @_ZNK5Ipopt8SmartPtrIKNS_11VectorSpaceEEptEv(ptr noundef nonnull align 8 dereferenceable(8) %4)
  %6 = load ptr, ptr %5, align 8
  %7 = getelementptr inbounds ptr, ptr %6, i64 2
  %8 = load ptr, ptr %7, align 8
  %9 = call noundef ptr %8(ptr noundef nonnull align 8 dereferenceable(16) %5)
  ret ptr %9
}

; Function Attrs: mustprogress uwtable
define linkonce_odr noundef nonnull align 8 dereferenceable(8) ptr @_ZN5Ipopt8SmartPtrIKNS_6VectorEEaSEPS2_(ptr noundef nonnull align 8 dereferenceable(8) %0, ptr noundef %1) #7 comdat align 2 {
  %3 = alloca ptr, align 8
  %4 = alloca ptr, align 8
  store ptr %0, ptr %3, align 8
  store ptr %1, ptr %4, align 8
  %5 = load ptr, ptr %3, align 8
  %6 = load ptr, ptr %4, align 8
  %7 = call noundef nonnull align 8 dereferenceable(8) ptr @_ZN5Ipopt8SmartPtrIKNS_6VectorEE14SetFromRawPtr_EPS2_(ptr noundef nonnull align 8 dereferenceable(8) %5, ptr noundef %6)
  ret ptr %7
}

; Function Attrs: mustprogress uwtable
define linkonce_odr noundef ptr @_ZNK5Ipopt6Vector11MakeNewCopyEv(ptr noundef nonnull align 8 dereferenceable(205) %0) #7 comdat align 2 {
  %2 = alloca ptr, align 8
  %3 = alloca ptr, align 8
  store ptr %0, ptr %2, align 8
  %4 = load ptr, ptr %2, align 8
  %5 = call noundef ptr @_ZNK5Ipopt6Vector7MakeNewEv(ptr noundef nonnull align 8 dereferenceable(205) %4)
  store ptr %5, ptr %3, align 8
  %6 = load ptr, ptr %3, align 8
  call void @_ZN5Ipopt6Vector4CopyERKS0_(ptr noundef nonnull align 8 dereferenceable(205) %6, ptr noundef nonnull align 8 dereferenceable(205) %4)
  %7 = load ptr, ptr %3, align 8
  ret ptr %7
}

; Function Attrs: mustprogress uwtable
define void @_ZN5Ipopt12OrigIpoptNLP20AdjustVariableBoundsERKNS_6VectorES3_S3_S3_(ptr noundef nonnull align 8 dereferenceable(544) %0, ptr noundef nonnull align 8 dereferenceable(205) %1, ptr noundef nonnull align 8 dereferenceable(205) %2, ptr noundef nonnull align 8 dereferenceable(205) %3, ptr noundef nonnull align 8 dereferenceable(205) %4) unnamed_addr #7 align 2 {
  %6 = alloca ptr, align 8
  %7 = alloca ptr, align 8
  %8 = alloca ptr, align 8
  %9 = alloca ptr, align 8
  %10 = alloca ptr, align 8
  store ptr %0, ptr %6, align 8
  store ptr %1, ptr %7, align 8
  store ptr %2, ptr %8, align 8
  store ptr %3, ptr %9, align 8
  store ptr %4, ptr %10, align 8
  %11 = load ptr, ptr %6, align 8
  %12 = load ptr, ptr %7, align 8
  %13 = call noundef ptr @_ZNK5Ipopt6Vector11MakeNewCopyEv(ptr noundef nonnull align 8 dereferenceable(205) %12)
  %14 = getelementptr inbounds %"class.Ipopt::OrigIpoptNLP", ptr %11, i32 0, i32 28
  %15 = call noundef nonnull align 8 dereferenceable(8) ptr @_ZN5Ipopt8SmartPtrIKNS_6VectorEEaSEPS2_(ptr noundef nonnull align 8 dereferenceable(8) %14, ptr noundef %13)
  %16 = load ptr, ptr %8, align 8
  %17 = call noundef ptr @_ZNK5Ipopt6Vector11MakeNewCopyEv(ptr noundef nonnull align 8 dereferenceable(205) %16)
  %18 = getelementptr inbounds %"class.Ipopt::OrigIpoptNLP", ptr %11, i32 0, i32 30
  %19 = call noundef nonnull align 8 dereferenceable(8) ptr @_ZN5Ipopt8SmartPtrIKNS_6VectorEEaSEPS2_(ptr noundef nonnull align 8 dereferenceable(8) %18, ptr noundef %17)
  %20 = load ptr, ptr %9, align 8
  %21 = call noundef ptr @_ZNK5Ipopt6Vector11MakeNewCopyEv(ptr noundef nonnull align 8 dereferenceable(205) %20)
  %22 = getelementptr inbounds %"class.Ipopt::OrigIpoptNLP", ptr %11, i32 0, i32 32
  %23 = call noundef nonnull align 8 dereferenceable(8) ptr @_ZN5Ipopt8SmartPtrIKNS_6VectorEEaSEPS2_(ptr noundef nonnull align 8 dereferenceable(8) %22, ptr noundef %21)
  %24 = load ptr, ptr %10, align 8
  %25 = call noundef ptr @_ZNK5Ipopt6Vector11MakeNewCopyEv(ptr noundef nonnull align 8 dereferenceable(205) %24)
  %26 = getelementptr inbounds %"class.Ipopt::OrigIpoptNLP", ptr %11, i32 0, i32 34
  %27 = call noundef nonnull align 8 dereferenceable(8) ptr @_ZN5Ipopt8SmartPtrIKNS_6VectorEEaSEPS2_(ptr noundef nonnull align 8 dereferenceable(8) %26, ptr noundef %25)
  ret void
}