; Function Attrs: mustprogress uwtable
define void @_ZN5Ipopt12OrigIpoptNLP20AdjustVariableBoundsERKNS_6VectorES3_S3_S3_(ptr nocapture noundef nonnull align 8 dereferenceable(544) %0, ptr noundef nonnull align 8 dereferenceable(205) %1, ptr noundef nonnull align 8 dereferenceable(205) %2, ptr noundef nonnull align 8 dereferenceable(205) %3, ptr noundef nonnull align 8 dereferenceable(205) %4) unnamed_addr #4 align 2 {
  %6 = getelementptr inbounds i8, ptr %1, i64 56
  %7 = load ptr, ptr %6, align 8
  %8 = load ptr, ptr %7, align 8
  %9 = getelementptr inbounds i8, ptr %8, i64 16
  %10 = load ptr, ptr %9, align 8
  %11 = tail call noundef ptr %10(ptr noundef nonnull align 8 dereferenceable(16) %7)
  tail call void @_ZN5Ipopt6Vector4CopyERKS0_(ptr noundef nonnull align 8 dereferenceable(205) %11, ptr noundef nonnull align 8 dereferenceable(205) %1)
  %12 = getelementptr inbounds i8, ptr %0, i64 368
  %13 = getelementptr inbounds i8, ptr %11, i64 8
  %14 = load i32, ptr %13, align 8
  %15 = add nsw i32 %14, 1
  store i32 %15, ptr %13, align 8
  %16 = load ptr, ptr %12, align 8
  %.not.i.i.i = icmp eq ptr %16, null
  br i1 %.not.i.i.i, label %29, label %17

17:                                               ; preds = %5
  %18 = getelementptr inbounds i8, ptr %16, i64 8
  %19 = load i32, ptr %18, align 8
  %20 = add nsw i32 %19, -1
  store i32 %20, ptr %18, align 8
  %21 = load ptr, ptr %12, align 8
  %22 = getelementptr inbounds i8, ptr %21, i64 8
  %23 = load i32, ptr %22, align 8
  %24 = icmp eq i32 %23, 0
  br i1 %24, label %25, label %29

25:                                               ; preds = %17
  %26 = load ptr, ptr %21, align 8
  %27 = getelementptr inbounds i8, ptr %26, i64 8
  %28 = load ptr, ptr %27, align 8
  tail call void %28(ptr noundef nonnull align 8 dereferenceable(205) %21) #20
  br label %29

29:                                               ; preds = %5, %17, %25
  store ptr %11, ptr %12, align 8
  %30 = getelementptr inbounds i8, ptr %2, i64 56
  %31 = load ptr, ptr %30, align 8
  %32 = load ptr, ptr %31, align 8
  %33 = getelementptr inbounds i8, ptr %32, i64 16
  %34 = load ptr, ptr %33, align 8
  %35 = tail call noundef ptr %34(ptr noundef nonnull align 8 dereferenceable(16) %31)
  tail call void @_ZN5Ipopt6Vector4CopyERKS0_(ptr noundef nonnull align 8 dereferenceable(205) %35, ptr noundef nonnull align 8 dereferenceable(205) %2)
  %36 = getelementptr inbounds i8, ptr %0, i64 384
  %37 = getelementptr inbounds i8, ptr %35, i64 8
  %38 = load i32, ptr %37, align 8
  %39 = add nsw i32 %38, 1
  store i32 %39, ptr %37, align 8
  %40 = load ptr, ptr %36, align 8
  %.not.i.i.i6 = icmp eq ptr %40, null
  br i1 %.not.i.i.i6, label %53, label %41

41:                                               ; preds = %29
  %42 = getelementptr inbounds i8, ptr %40, i64 8
  %43 = load i32, ptr %42, align 8
  %44 = add nsw i32 %43, -1
  store i32 %44, ptr %42, align 8
  %45 = load ptr, ptr %36, align 8
  %46 = getelementptr inbounds i8, ptr %45, i64 8
  %47 = load i32, ptr %46, align 8
  %48 = icmp eq i32 %47, 0
  br i1 %48, label %49, label %53

49:                                               ; preds = %41
  %50 = load ptr, ptr %45, align 8
  %51 = getelementptr inbounds i8, ptr %50, i64 8
  %52 = load ptr, ptr %51, align 8
  tail call void %52(ptr noundef nonnull align 8 dereferenceable(205) %45) #20
  br label %53

53:                                               ; preds = %29, %41, %49
  store ptr %35, ptr %36, align 8
  %54 = getelementptr inbounds i8, ptr %3, i64 56
  %55 = load ptr, ptr %54, align 8
  %56 = load ptr, ptr %55, align 8
  %57 = getelementptr inbounds i8, ptr %56, i64 16
  %58 = load ptr, ptr %57, align 8
  %59 = tail call noundef ptr %58(ptr noundef nonnull align 8 dereferenceable(16) %55)
  tail call void @_ZN5Ipopt6Vector4CopyERKS0_(ptr noundef nonnull align 8 dereferenceable(205) %59, ptr noundef nonnull align 8 dereferenceable(205) %3)
  %60 = getelementptr inbounds i8, ptr %0, i64 400
  %61 = getelementptr inbounds i8, ptr %59, i64 8
  %62 = load i32, ptr %61, align 8
  %63 = add nsw i32 %62, 1
  store i32 %63, ptr %61, align 8
  %64 = load ptr, ptr %60, align 8
  %.not.i.i.i9 = icmp eq ptr %64, null
  br i1 %.not.i.i.i9, label %77, label %65

65:                                               ; preds = %53
  %66 = getelementptr inbounds i8, ptr %64, i64 8
  %67 = load i32, ptr %66, align 8
  %68 = add nsw i32 %67, -1
  store i32 %68, ptr %66, align 8
  %69 = load ptr, ptr %60, align 8
  %70 = getelementptr inbounds i8, ptr %69, i64 8
  %71 = load i32, ptr %70, align 8
  %72 = icmp eq i32 %71, 0
  br i1 %72, label %73, label %77

73:                                               ; preds = %65
  %74 = load ptr, ptr %69, align 8
  %75 = getelementptr inbounds i8, ptr %74, i64 8
  %76 = load ptr, ptr %75, align 8
  tail call void %76(ptr noundef nonnull align 8 dereferenceable(205) %69) #20
  br label %77

77:                                               ; preds = %53, %65, %73
  store ptr %59, ptr %60, align 8
  %78 = getelementptr inbounds i8, ptr %4, i64 56
  %79 = load ptr, ptr %78, align 8
  %80 = load ptr, ptr %79, align 8
  %81 = getelementptr inbounds i8, ptr %80, i64 16
  %82 = load ptr, ptr %81, align 8
  %83 = tail call noundef ptr %82(ptr noundef nonnull align 8 dereferenceable(16) %79)
  tail call void @_ZN5Ipopt6Vector4CopyERKS0_(ptr noundef nonnull align 8 dereferenceable(205) %83, ptr noundef nonnull align 8 dereferenceable(205) %4)
  %84 = getelementptr inbounds i8, ptr %0, i64 416
  %85 = getelementptr inbounds i8, ptr %83, i64 8
  %86 = load i32, ptr %85, align 8
  %87 = add nsw i32 %86, 1
  store i32 %87, ptr %85, align 8
  %88 = load ptr, ptr %84, align 8
  %.not.i.i.i12 = icmp eq ptr %88, null
  br i1 %.not.i.i.i12, label %_ZN5Ipopt8SmartPtrIKNS_6VectorEEaSEPS2_.exit13, label %89

89:                                               ; preds = %77
  %90 = getelementptr inbounds i8, ptr %88, i64 8
  %91 = load i32, ptr %90, align 8
  %92 = add nsw i32 %91, -1
  store i32 %92, ptr %90, align 8
  %93 = load ptr, ptr %84, align 8
  %94 = getelementptr inbounds i8, ptr %93, i64 8
  %95 = load i32, ptr %94, align 8
  %96 = icmp eq i32 %95, 0
  br i1 %96, label %97, label %_ZN5Ipopt8SmartPtrIKNS_6VectorEEaSEPS2_.exit13

97:                                               ; preds = %89
  %98 = load ptr, ptr %93, align 8
  %99 = getelementptr inbounds i8, ptr %98, i64 8
  %100 = load ptr, ptr %99, align 8
  tail call void %100(ptr noundef nonnull align 8 dereferenceable(205) %93) #20
  br label %_ZN5Ipopt8SmartPtrIKNS_6VectorEEaSEPS2_.exit13

_ZN5Ipopt8SmartPtrIKNS_6VectorEEaSEPS2_.exit13:   ; preds = %77, %89, %97
  store ptr %83, ptr %84, align 8
  ret void
}